target datalayout = "e-m:e-p270:32:32-p271:32:32-p272:64:64-i64:64-i128:128-f80:128-n8:16:32:64-S128"
target triple = "x86_64-pc-linux-gnu"

%struct.H5C_cache_entry_t = type { ptr, i64, i64, ptr, i8, ptr, i8, i8, i8, i8, i32, i8, i8, i8, i8, i8, i32, ptr, i32, i32, i32, i32, i32, i8, i8, ptr, ptr, ptr, ptr, ptr, ptr, i8, i32, i8, i64, ptr, i64, i64, i32, i8, i32, i32, i8, ptr, ptr, ptr }
%struct.H5FA_hdr_t = type { %struct.H5C_cache_entry_t, %struct.H5FA_create_t, i64, %struct.H5FA_stat_t, i64, i64, i64, ptr, i64, i8, i64, i64, ptr, i8, ptr, ptr }
%struct.H5FA_create_t = type { ptr, i8, i8, i64 }
%struct.H5FA_stat_t = type { i64, i64, i64 }
%struct.H5FA_class_t = type { i32, ptr, i64, ptr, ptr, ptr, ptr, ptr, ptr, ptr, ptr }
%struct.H5FA_dblk_page_cache_ud_t = type { ptr, i64, i64 }
%struct.H5FA_dbk_page_t = type { %struct.H5C_cache_entry_t, ptr, ptr, ptr, i64, i64, i64 }

@H5FA_init_g = external global i8, align 1
@H5_libterm_g = external global i8, align 1
@.str.3 = private unnamed_addr constant [103 x i8] c"generated/home/dtcxzyw/WorkSpace/Projects/compilers/llvm-opt-benchmark/bench/hdf5/hdf5/src/H5FAcache.c\00", align 1
@H5E_FARRAY_g = external global i64, align 8
@H5E_CANTALLOC_g = external global i64, align 8
@H5E_CANTFREE_g = external global i64, align 8
@H5E_CANTDECODE_g = external global i64, align 8
@.str.21 = private unnamed_addr constant [39 x i8] c"can't decode fixed array data elements\00", align 1
@__func__.H5FA__cache_dblk_page_deserialize = private unnamed_addr constant [34 x i8] c"H5FA__cache_dblk_page_deserialize\00", align 1
@.str.28 = private unnamed_addr constant [57 x i8] c"memory allocation failed for fixed array data block page\00", align 1
@.str.29 = private unnamed_addr constant [46 x i8] c"unable to destroy fixed array data block page\00", align 1

; Function Attrs: nounwind uwtable
define internal ptr @H5FA__cache_dblk_page_deserialize(ptr noundef %0, i64 noundef %1, ptr noundef %2, ptr noundef %3) #0 {
  %5 = alloca ptr, align 8
  %6 = alloca i64, align 8
  %7 = alloca ptr, align 8
  %8 = alloca ptr, align 8
  %9 = alloca ptr, align 8
  %10 = alloca ptr, align 8
  %11 = alloca ptr, align 8
  %12 = alloca i32, align 4
  %13 = alloca ptr, align 8
  %14 = alloca i8, align 1
  store ptr %0, ptr %5, align 8, !tbaa !3
  store i64 %1, ptr %6, align 8, !tbaa !19
  store ptr %2, ptr %7, align 8, !tbaa !3
  store ptr %3, ptr %8, align 8, !tbaa !24
  call void @llvm.lifetime.start.p0(i64 8, ptr %9) #7
  store ptr null, ptr %9, align 8, !tbaa !88
  call void @llvm.lifetime.start.p0(i64 8, ptr %10) #7
  %15 = load ptr, ptr %7, align 8, !tbaa !3
  store ptr %15, ptr %10, align 8, !tbaa !83
  call void @llvm.lifetime.start.p0(i64 8, ptr %11) #7
  %16 = load ptr, ptr %5, align 8, !tbaa !3
  store ptr %16, ptr %11, align 8, !tbaa !20
  call void @llvm.lifetime.start.p0(i64 4, ptr %12) #7
  call void @llvm.lifetime.start.p0(i64 8, ptr %13) #7
  store ptr null, ptr %13, align 8, !tbaa !3
  call void @llvm.lifetime.start.p0(i64 1, ptr %14) #7
  store i8 0, ptr %14, align 1, !tbaa !11
  %17 = load i8, ptr @H5FA_init_g, align 1, !tbaa !11, !range !13, !noundef !14
  %18 = trunc i8 %17 to i1
  br i1 %18, label %23, label %19

19:                                               ; preds = %4
  %20 = load i8, ptr @H5_libterm_g, align 1, !tbaa !11, !range !13, !noundef !14
  %21 = trunc i8 %20 to i1
  %22 = xor i1 %21, true
  br label %23

23:                                               ; preds = %19, %4
  %24 = phi i1 [ true, %4 ], [ %22, %19 ]
  %25 = xor i1 %24, true
  %26 = xor i1 %25, true
  %27 = zext i1 %26 to i32
  %28 = sext i32 %27 to i64
  %29 = call i64 @llvm.expect.i64(i64 %28, i64 1)
  %30 = icmp ne i64 %29, 0
  br i1 %30, label %31, label %188

31:                                               ; preds = %23
  %32 = load ptr, ptr %10, align 8, !tbaa !83
  %33 = getelementptr inbounds nuw %struct.H5FA_dblk_page_cache_ud_t, ptr %32, i32 0, i32 0
  %34 = load ptr, ptr %33, align 8, !tbaa !87
  %35 = load ptr, ptr %10, align 8, !tbaa !83
  %36 = getelementptr inbounds nuw %struct.H5FA_dblk_page_cache_ud_t, ptr %35, i32 0, i32 1
  %37 = load i64, ptr %36, align 8, !tbaa !85
  %38 = call ptr @H5FA__dblk_page_alloc(ptr noundef %34, i64 noundef %37)
  store ptr %38, ptr %9, align 8, !tbaa !88
  %39 = icmp eq ptr null, %38
  br i1 %39, label %40, label %59

40:                                               ; preds = %31
  br label %41

41:                                               ; preds = %40
  br label %42

42:                                               ; preds = %41
  br label %43

43:                                               ; preds = %42
  %44 = load i64, ptr @H5E_FARRAY_g, align 8, !tbaa !19
  %45 = load i64, ptr @H5E_CANTALLOC_g, align 8, !tbaa !19
  %46 = call i32 (ptr, ptr, i32, i64, i64, ptr, ...) @H5E_printf_stack(ptr noundef @.str.3, ptr noundef @__func__.H5FA__cache_dblk_page_deserialize, i32 noundef 1034, i64 noundef %44, i64 noundef %45, ptr noundef @.str.28)
  br label %47

47:                                               ; preds = %43
  br label %48

48:                                               ; preds = %47
  store i8 1, ptr %14, align 1, !tbaa !11
  %49 = load i8, ptr %14, align 1, !tbaa !11, !range !13, !noundef !14
  %50 = trunc i8 %49 to i1
  %51 = zext i1 %50 to i8
  store i8 %51, ptr %14, align 1, !tbaa !11
  br label %52

52:                                               ; preds = %48
  br label %53

53:                                               ; preds = %52
  br label %54

54:                                               ; preds = %53
  store ptr null, ptr %13, align 8, !tbaa !3
  br label %160

55:                                               ; No predecessors!
  br label %56

56:                                               ; preds = %55
  br label %57

57:                                               ; preds = %56
  br label %58

58:                                               ; preds = %57
  br label %59

59:                                               ; preds = %58, %31
  %60 = load ptr, ptr %10, align 8, !tbaa !83
  %61 = getelementptr inbounds nuw %struct.H5FA_dblk_page_cache_ud_t, ptr %60, i32 0, i32 2
  %62 = load i64, ptr %61, align 8, !tbaa !90
  %63 = load ptr, ptr %9, align 8, !tbaa !88
  %64 = getelementptr inbounds nuw %struct.H5FA_dbk_page_t, ptr %63, i32 0, i32 4
  store i64 %62, ptr %64, align 8, !tbaa !91
  %65 = load ptr, ptr %10, align 8, !tbaa !83
  %66 = getelementptr inbounds nuw %struct.H5FA_dblk_page_cache_ud_t, ptr %65, i32 0, i32 0
  %67 = load ptr, ptr %66, align 8, !tbaa !87
  %68 = getelementptr inbounds nuw %struct.H5FA_hdr_t, ptr %67, i32 0, i32 1
  %69 = getelementptr inbounds nuw %struct.H5FA_create_t, ptr %68, i32 0, i32 0
  %70 = load ptr, ptr %69, align 8, !tbaa !43
  %71 = getelementptr inbounds nuw %struct.H5FA_class_t, ptr %70, i32 0, i32 7
  %72 = load ptr, ptr %71, align 8, !tbaa !77
  %73 = load ptr, ptr %11, align 8, !tbaa !20
  %74 = load ptr, ptr %9, align 8, !tbaa !88
  %75 = getelementptr inbounds nuw %struct.H5FA_dbk_page_t, ptr %74, i32 0, i32 1
  %76 = load ptr, ptr %75, align 8, !tbaa !93
  %77 = load ptr, ptr %10, align 8, !tbaa !83
  %78 = getelementptr inbounds nuw %struct.H5FA_dblk_page_cache_ud_t, ptr %77, i32 0, i32 1
  %79 = load i64, ptr %78, align 8, !tbaa !85
  %80 = load ptr, ptr %10, align 8, !tbaa !83
  %81 = getelementptr inbounds nuw %struct.H5FA_dblk_page_cache_ud_t, ptr %80, i32 0, i32 0
  %82 = load ptr, ptr %81, align 8, !tbaa !87
  %83 = getelementptr inbounds nuw %struct.H5FA_hdr_t, ptr %82, i32 0, i32 12
  %84 = load ptr, ptr %83, align 8, !tbaa !79
  %85 = call i32 %72(ptr noundef %73, ptr noundef %76, i64 noundef %79, ptr noundef %84)
  %86 = icmp slt i32 %85, 0
  br i1 %86, label %87, label %106

87:                                               ; preds = %59
  br label %88

88:                                               ; preds = %87
  br label %89

89:                                               ; preds = %88
  br label %90

90:                                               ; preds = %89
  %91 = load i64, ptr @H5E_FARRAY_g, align 8, !tbaa !19
  %92 = load i64, ptr @H5E_CANTDECODE_g, align 8, !tbaa !19
  %93 = call i32 (ptr, ptr, i32, i64, i64, ptr, ...) @H5E_printf_stack(ptr noundef @.str.3, ptr noundef @__func__.H5FA__cache_dblk_page_deserialize, i32 noundef 1044, i64 noundef %91, i64 noundef %92, ptr noundef @.str.21)
  br label %94

94:                                               ; preds = %90
  br label %95

95:                                               ; preds = %94
  store i8 1, ptr %14, align 1, !tbaa !11
  %96 = load i8, ptr %14, align 1, !tbaa !11, !range !13, !noundef !14
  %97 = trunc i8 %96 to i1
  %98 = zext i1 %97 to i8
  store i8 %98, ptr %14, align 1, !tbaa !11
  br label %99

99:                                               ; preds = %95
  br label %100

100:                                              ; preds = %99
  br label %101

101:                                              ; preds = %100
  store ptr null, ptr %13, align 8, !tbaa !3
  br label %160

102:                                              ; No predecessors!
  br label %103

103:                                              ; preds = %102
  br label %104

104:                                              ; preds = %103
  br label %105

105:                                              ; preds = %104
  br label %106

106:                                              ; preds = %105, %59
  %107 = load ptr, ptr %10, align 8, !tbaa !83
  %108 = getelementptr inbounds nuw %struct.H5FA_dblk_page_cache_ud_t, ptr %107, i32 0, i32 1
  %109 = load i64, ptr %108, align 8, !tbaa !85
  %110 = load ptr, ptr %10, align 8, !tbaa !83
  %111 = getelementptr inbounds nuw %struct.H5FA_dblk_page_cache_ud_t, ptr %110, i32 0, i32 0
  %112 = load ptr, ptr %111, align 8, !tbaa !87
  %113 = getelementptr inbounds nuw %struct.H5FA_hdr_t, ptr %112, i32 0, i32 1
  %114 = getelementptr inbounds nuw %struct.H5FA_create_t, ptr %113, i32 0, i32 1
  %115 = load i8, ptr %114, align 8, !tbaa !44
  %116 = zext i8 %115 to i64
  %117 = mul i64 %109, %116
  %118 = load ptr, ptr %11, align 8, !tbaa !20
  %119 = getelementptr inbounds nuw i8, ptr %118, i64 %117
  store ptr %119, ptr %11, align 8, !tbaa !20
  %120 = load i64, ptr %6, align 8, !tbaa !19
  %121 = load ptr, ptr %9, align 8, !tbaa !88
  %122 = getelementptr inbounds nuw %struct.H5FA_dbk_page_t, ptr %121, i32 0, i32 5
  store i64 %120, ptr %122, align 8, !tbaa !94
  br label %123

123:                                              ; preds = %106
  %124 = load ptr, ptr %11, align 8, !tbaa !20
  %125 = load i8, ptr %124, align 1, !tbaa !41
  %126 = zext i8 %125 to i32
  %127 = and i32 %126, 255
  store i32 %127, ptr %12, align 4, !tbaa !22
  %128 = load ptr, ptr %11, align 8, !tbaa !20
  %129 = getelementptr inbounds nuw i8, ptr %128, i32 1
  store ptr %129, ptr %11, align 8, !tbaa !20
  %130 = load ptr, ptr %11, align 8, !tbaa !20
  %131 = load i8, ptr %130, align 1, !tbaa !41
  %132 = zext i8 %131 to i32
  %133 = and i32 %132, 255
  %134 = shl i32 %133, 8
  %135 = load i32, ptr %12, align 4, !tbaa !22
  %136 = or i32 %135, %134
  store i32 %136, ptr %12, align 4, !tbaa !22
  %137 = load ptr, ptr %11, align 8, !tbaa !20
  %138 = getelementptr inbounds nuw i8, ptr %137, i32 1
  store ptr %138, ptr %11, align 8, !tbaa !20
  %139 = load ptr, ptr %11, align 8, !tbaa !20
  %140 = load i8, ptr %139, align 1, !tbaa !41
  %141 = zext i8 %140 to i32
  %142 = and i32 %141, 255
  %143 = shl i32 %142, 16
  %144 = load i32, ptr %12, align 4, !tbaa !22
  %145 = or i32 %144, %143
  store i32 %145, ptr %12, align 4, !tbaa !22
  %146 = load ptr, ptr %11, align 8, !tbaa !20
  %147 = getelementptr inbounds nuw i8, ptr %146, i32 1
  store ptr %147, ptr %11, align 8, !tbaa !20
  %148 = load ptr, ptr %11, align 8, !tbaa !20
  %149 = load i8, ptr %148, align 1, !tbaa !41
  %150 = zext i8 %149 to i32
  %151 = and i32 %150, 255
  %152 = shl i32 %151, 24
  %153 = load i32, ptr %12, align 4, !tbaa !22
  %154 = or i32 %153, %152
  store i32 %154, ptr %12, align 4, !tbaa !22
  %155 = load ptr, ptr %11, align 8, !tbaa !20
  %156 = getelementptr inbounds nuw i8, ptr %155, i32 1
  store ptr %156, ptr %11, align 8, !tbaa !20
  br label %157

157:                                              ; preds = %123
  br label %158

158:                                              ; preds = %157
  %159 = load ptr, ptr %9, align 8, !tbaa !88
  store ptr %159, ptr %13, align 8, !tbaa !3
  br label %160

160:                                              ; preds = %158, %101, %54
  %161 = load ptr, ptr %13, align 8, !tbaa !3
  %162 = icmp ne ptr %161, null
  br i1 %162, label %187, label %163

163:                                              ; preds = %160
  %164 = load ptr, ptr %9, align 8, !tbaa !88
  %165 = icmp ne ptr %164, null
  br i1 %165, label %166, label %186

166:                                              ; preds = %163
  %167 = load ptr, ptr %9, align 8, !tbaa !88
  %168 = call i32 @H5FA__dblk_page_dest(ptr noundef %167)
  %169 = icmp slt i32 %168, 0
  br i1 %169, label %170, label %186

170:                                              ; preds = %166
  br label %171

171:                                              ; preds = %170
  br label %172

172:                                              ; preds = %171
  br label %173

173:                                              ; preds = %172
  %174 = load i64, ptr @H5E_FARRAY_g, align 8, !tbaa !19
  %175 = load i64, ptr @H5E_CANTFREE_g, align 8, !tbaa !19
  %176 = call i32 (ptr, ptr, i32, i64, i64, ptr, ...) @H5E_printf_stack(ptr noundef @.str.3, ptr noundef @__func__.H5FA__cache_dblk_page_deserialize, i32 noundef 1070, i64 noundef %174, i64 noundef %175, ptr noundef @.str.29)
  br label %177

177:                                              ; preds = %173
  br label %178

178:                                              ; preds = %177
  store i8 1, ptr %14, align 1, !tbaa !11
  %179 = load i8, ptr %14, align 1, !tbaa !11, !range !13, !noundef !14
  %180 = trunc i8 %179 to i1
  %181 = zext i1 %180 to i8
  store i8 %181, ptr %14, align 1, !tbaa !11
  br label %182

182:                                              ; preds = %178
  br label %183

183:                                              ; preds = %182
  store ptr null, ptr %13, align 8, !tbaa !3
  br label %184

184:                                              ; preds = %183
  br label %185

185:                                              ; preds = %184
  br label %186

186:                                              ; preds = %185, %166, %163
  br label %187

187:                                              ; preds = %186, %160
  br label %188

188:                                              ; preds = %187, %23
  %189 = load ptr, ptr %13, align 8, !tbaa !3
  call void @llvm.lifetime.end.p0(i64 1, ptr %14) #7
  call void @llvm.lifetime.end.p0(i64 8, ptr %13) #7
  call void @llvm.lifetime.end.p0(i64 4, ptr %12) #7
  call void @llvm.lifetime.end.p0(i64 8, ptr %11) #7
  call void @llvm.lifetime.end.p0(i64 8, ptr %10) #7
  call void @llvm.lifetime.end.p0(i64 8, ptr %9) #7
  ret ptr %189
}