; Function Attrs: nounwind uwtable
define internal ptr @H5FA__cache_dblk_page_deserialize(ptr noundef %0, i64 noundef %1, ptr noundef readonly captures(none) %2, ptr readnone captures(none) %3) #0 {
  %5 = load i8, ptr @H5FA_init_g, align 1, !tbaa !3, !range !7, !noundef !8
  %6 = trunc nuw i8 %5 to i1
  %7 = load i8, ptr @H5_libterm_g, align 1, !range !7
  %8 = trunc nuw i8 %7 to i1
  %9 = xor i1 %8, true
  %10 = select i1 %6, i1 true, i1 %9
  br i1 %10, label %11, label %.thread, !prof !9

11:                                               ; preds = %4
  %12 = load ptr, ptr %2, align 8, !tbaa !73
  %13 = getelementptr inbounds nuw i8, ptr %2, i64 8
  %14 = load i64, ptr %13, align 8, !tbaa !71
  %15 = tail call ptr @H5FA__dblk_page_alloc(ptr noundef %12, i64 noundef %14) #6
  %16 = icmp eq ptr %15, null
  br i1 %16, label %17, label %21

17:                                               ; preds = %11
  %18 = load i64, ptr @H5E_FARRAY_g, align 8, !tbaa !15
  %19 = load i64, ptr @H5E_CANTALLOC_g, align 8, !tbaa !15
  %20 = tail call i32 (ptr, ptr, i32, i64, i64, ptr, ...) @H5E_printf_stack(ptr noundef nonnull @.str.3, ptr noundef nonnull @__func__.H5FA__cache_dblk_page_deserialize, i32 noundef 1034, i64 noundef %18, i64 noundef %19, ptr noundef nonnull @.str.28) #6
  br label %.thread

21:                                               ; preds = %11
  %22 = getelementptr inbounds nuw i8, ptr %2, i64 16
  %23 = load i64, ptr %22, align 8, !tbaa !74
  %24 = getelementptr inbounds nuw i8, ptr %15, i64 272
  store i64 %23, ptr %24, align 8, !tbaa !75
  %25 = load ptr, ptr %2, align 8, !tbaa !73
  %26 = getelementptr inbounds nuw i8, ptr %25, i64 248
  %27 = load ptr, ptr %26, align 8, !tbaa !36
  %28 = getelementptr inbounds nuw i8, ptr %27, i64 56
  %29 = load ptr, ptr %28, align 8, !tbaa !64
  %30 = getelementptr inbounds nuw i8, ptr %15, i64 248
  %31 = load ptr, ptr %30, align 8, !tbaa !77
  %32 = load i64, ptr %13, align 8, !tbaa !71
  %33 = getelementptr inbounds nuw i8, ptr %25, i64 368
  %34 = load ptr, ptr %33, align 8, !tbaa !66
  %35 = tail call i32 %29(ptr noundef %0, ptr noundef %31, i64 noundef %32, ptr noundef %34) #6
  %36 = icmp slt i32 %35, 0
  br i1 %36, label %39, label %37

37:                                               ; preds = %21
  %38 = getelementptr inbounds nuw i8, ptr %15, i64 280
  store i64 %1, ptr %38, align 8, !tbaa !78
  br label %.thread

39:                                               ; preds = %21
  %40 = load i64, ptr @H5E_FARRAY_g, align 8, !tbaa !15
  %41 = load i64, ptr @H5E_CANTDECODE_g, align 8, !tbaa !15
  %42 = tail call i32 (ptr, ptr, i32, i64, i64, ptr, ...) @H5E_printf_stack(ptr noundef nonnull @.str.3, ptr noundef nonnull @__func__.H5FA__cache_dblk_page_deserialize, i32 noundef 1044, i64 noundef %40, i64 noundef %41, ptr noundef nonnull @.str.21) #6
  %43 = tail call i32 @H5FA__dblk_page_dest(ptr noundef nonnull %15) #6
  %44 = icmp slt i32 %43, 0
  br i1 %44, label %45, label %.thread

45:                                               ; preds = %39
  %46 = load i64, ptr @H5E_FARRAY_g, align 8, !tbaa !15
  %47 = load i64, ptr @H5E_CANTFREE_g, align 8, !tbaa !15
  %48 = tail call i32 (ptr, ptr, i32, i64, i64, ptr, ...) @H5E_printf_stack(ptr noundef nonnull @.str.3, ptr noundef nonnull @__func__.H5FA__cache_dblk_page_deserialize, i32 noundef 1070, i64 noundef %46, i64 noundef %47, ptr noundef nonnull @.str.29) #6
  br label %.thread

.thread:                                          ; preds = %17, %37, %45, %39, %4
  %.0 = phi ptr [ null, %45 ], [ null, %39 ], [ null, %4 ], [ %15, %37 ], [ null, %17 ]
  ret ptr %.0
}